; Function Attrs: mustprogress uwtable
define hidden void @_ZNK19OpenColorIO_v2_5dev27Renderer_ACES_RGB_TO_JMh_203invEPKvPvl(ptr noundef nonnull align 8 dereferenceable(124) %0, ptr noundef readonly captures(none) %1, ptr noundef writeonly captures(none) %2, i64 noundef %3) local_unnamed_addr #11 align 2 {
  %5 = alloca %"struct.std::array", align 4
  %6 = icmp sgt i64 %3, 0
  br i1 %6, label %.lr.ph, label %._crit_edge

.lr.ph:                                           ; preds = %4
  %7 = getelementptr inbounds nuw i8, ptr %5, i64 4
  %8 = getelementptr inbounds nuw i8, ptr %5, i64 8
  %9 = getelementptr inbounds nuw i8, ptr %0, i64 12
  br label %10

._crit_edge:                                      ; preds = %10, %4
  ret void

10:                                               ; preds = %.lr.ph, %10
  %.019 = phi ptr [ %1, %.lr.ph ], [ %22, %10 ]
  %.01518 = phi ptr [ %2, %.lr.ph ], [ %23, %10 ]
  %.01617 = phi i64 [ 0, %.lr.ph ], [ %24, %10 ]
  call void @llvm.lifetime.start.p0(i64 12, ptr nonnull %5) #28
  %11 = load float, ptr %.019, align 4, !tbaa !13
  store float %11, ptr %5, align 4, !tbaa !13
  %12 = getelementptr inbounds nuw i8, ptr %.019, i64 4
  %13 = load float, ptr %12, align 4, !tbaa !13
  store float %13, ptr %7, align 4, !tbaa !13
  %14 = getelementptr inbounds nuw i8, ptr %.019, i64 8
  %15 = load float, ptr %14, align 4, !tbaa !13
  store float %15, ptr %8, align 4, !tbaa !13
  %16 = call { <2 x float>, float } @_ZN19OpenColorIO_v2_5dev5ACES210JMh_to_RGBERKSt5arrayIfLm3EERKNS0_9JMhParamsE(ptr noundef nonnull align 4 dereferenceable(12) %5, ptr noundef nonnull align 4 dereferenceable(112) %9)
  %.fca.0.extract = extractvalue { <2 x float>, float } %16, 0
  %.fca.1.extract = extractvalue { <2 x float>, float } %16, 1
  call void @llvm.lifetime.end.p0(i64 12, ptr nonnull %5) #28
  %.sroa.0.0.vec.extract = extractelement <2 x float> %.fca.0.extract, i64 0
  store float %.sroa.0.0.vec.extract, ptr %.01518, align 4, !tbaa !13
  %.sroa.0.4.vec.extract = extractelement <2 x float> %.fca.0.extract, i64 1
  %17 = getelementptr inbounds nuw i8, ptr %.01518, i64 4
  store float %.sroa.0.4.vec.extract, ptr %17, align 4, !tbaa !13
  %18 = getelementptr inbounds nuw i8, ptr %.01518, i64 8
  store float %.fca.1.extract, ptr %18, align 4, !tbaa !13
  %19 = getelementptr inbounds nuw i8, ptr %.019, i64 12
  %20 = load float, ptr %19, align 4, !tbaa !13
  %21 = getelementptr inbounds nuw i8, ptr %.01518, i64 12
  store float %20, ptr %21, align 4, !tbaa !13
  %22 = getelementptr inbounds nuw i8, ptr %.019, i64 16
  %23 = getelementptr inbounds nuw i8, ptr %.01518, i64 16
  %24 = add nuw nsw i64 %.01617, 1
  %exitcond.not = icmp eq i64 %24, %3
  br i1 %exitcond.not, label %._crit_edge, label %10, !llvm.loop !105
}